; Function Attrs: mustprogress nofree norecurse nosync nounwind willreturn memory(none) uwtable
define range(i32 0, 2) i32 @stbi__mad3sizes_valid(i32 noundef %0, i32 noundef %1, i32 noundef %2, i32 noundef %3) local_unnamed_addr #0 {
  %5 = or i32 %1, %0
  %or.cond.not.i = icmp sgt i32 %5, -1
  br i1 %or.cond.not.i, label %6, label %stbi__mul2sizes_valid.exit.thread

6:                                                ; preds = %4
  %7 = icmp eq i32 %1, 0
  br i1 %7, label %stbi__mul2sizes_valid.exit.thread16, label %stbi__mul2sizes_valid.exit

stbi__mul2sizes_valid.exit:                       ; preds = %6
  %8 = udiv i32 2147483647, %1
  %.not24 = icmp sgt i32 %0, %8
  br i1 %.not24, label %stbi__mul2sizes_valid.exit.thread, label %stbi__mul2sizes_valid.exit.thread16

stbi__mul2sizes_valid.exit.thread16:              ; preds = %6, %stbi__mul2sizes_valid.exit
  %9 = mul nsw i32 %1, %0
  %10 = or i32 %2, %9
  %or.cond.not.i10 = icmp sgt i32 %10, -1
  br i1 %or.cond.not.i10, label %11, label %stbi__mul2sizes_valid.exit.thread

11:                                               ; preds = %stbi__mul2sizes_valid.exit.thread16
  %12 = icmp eq i32 %2, 0
  br i1 %12, label %stbi__mul2sizes_valid.exit12.thread21, label %stbi__mul2sizes_valid.exit12

stbi__mul2sizes_valid.exit12:                     ; preds = %11
  %13 = udiv i32 2147483647, %2
  %.not = icmp sgt i32 %9, %13
  br i1 %.not, label %stbi__mul2sizes_valid.exit.thread, label %stbi__mul2sizes_valid.exit12.thread21

stbi__mul2sizes_valid.exit12.thread21:            ; preds = %11, %stbi__mul2sizes_valid.exit12
  %14 = mul nsw i32 %9, %2
  %15 = icmp sgt i32 %3, -1
  %16 = sub nuw nsw i32 2147483647, %3
  %17 = icmp sle i32 %14, %16
  %narrow.i = select i1 %15, i1 %17, i1 false
  %.0.i13 = zext i1 %narrow.i to i32
  br label %stbi__mul2sizes_valid.exit.thread

stbi__mul2sizes_valid.exit.thread:                ; preds = %stbi__mul2sizes_valid.exit.thread16, %4, %stbi__mul2sizes_valid.exit12.thread21, %stbi__mul2sizes_valid.exit12, %stbi__mul2sizes_valid.exit
  %18 = phi i32 [ 0, %stbi__mul2sizes_valid.exit12 ], [ 0, %stbi__mul2sizes_valid.exit ], [ %.0.i13, %stbi__mul2sizes_valid.exit12.thread21 ], [ 0, %4 ], [ 0, %stbi__mul2sizes_valid.exit.thread16 ]
  ret i32 %18
}